target datalayout = "e-m:e-p270:32:32-p271:32:32-p272:64:64-i64:64-i128:128-f80:128-n8:16:32:64-S128"
target triple = "x86_64-pc-linux-gnu"

%struct.strbuf = type { i64, i64, ptr }

@.str.8 = private unnamed_addr constant [3 x i8] c"\\\22\00", align 1
@.str.9 = private unnamed_addr constant [3 x i8] c"\\\\\00", align 1
@.str.10 = private unnamed_addr constant [3 x i8] c"\\n\00", align 1
@.str.11 = private unnamed_addr constant [3 x i8] c"\\r\00", align 1
@.str.12 = private unnamed_addr constant [3 x i8] c"\\t\00", align 1
@.str.13 = private unnamed_addr constant [3 x i8] c"\\f\00", align 1
@.str.14 = private unnamed_addr constant [3 x i8] c"\\b\00", align 1
@.str.15 = private unnamed_addr constant [7 x i8] c"\\u%04x\00", align 1

; Function Attrs: inlinehint nounwind uwtable
define internal i64 @strbuf_avail(ptr noundef %0) #4 {
  %2 = alloca ptr, align 8
  store ptr %0, ptr %2, align 8, !tbaa !14
  %3 = load ptr, ptr %2, align 8, !tbaa !14
  %4 = getelementptr inbounds nuw %struct.strbuf, ptr %3, i32 0, i32 0
  %5 = load i64, ptr %4, align 8, !tbaa !32
  %6 = icmp ne i64 %5, 0
  br i1 %6, label %7, label %16

7:                                                ; preds = %1
  %8 = load ptr, ptr %2, align 8, !tbaa !14
  %9 = getelementptr inbounds nuw %struct.strbuf, ptr %8, i32 0, i32 0
  %10 = load i64, ptr %9, align 8, !tbaa !32
  %11 = load ptr, ptr %2, align 8, !tbaa !14
  %12 = getelementptr inbounds nuw %struct.strbuf, ptr %11, i32 0, i32 1
  %13 = load i64, ptr %12, align 8, !tbaa !33
  %14 = sub i64 %10, %13
  %15 = sub i64 %14, 1
  br label %17

16:                                               ; preds = %1
  br label %17

17:                                               ; preds = %16, %7
  %18 = phi i64 [ %15, %7 ], [ 0, %16 ]
  ret i64 %18
}

; Function Attrs: inlinehint nounwind uwtable
define internal void @strbuf_addstr(ptr noundef %0, ptr noundef %1) #4 {
  %3 = alloca ptr, align 8
  %4 = alloca ptr, align 8
  store ptr %0, ptr %3, align 8, !tbaa !14
  store ptr %1, ptr %4, align 8, !tbaa !12
  %5 = load ptr, ptr %3, align 8, !tbaa !14
  %6 = load ptr, ptr %4, align 8, !tbaa !12
  %7 = load ptr, ptr %4, align 8, !tbaa !12
  %8 = call i64 @strlen(ptr noundef %7) #8
  call void @strbuf_add(ptr noundef %5, ptr noundef %6, i64 noundef %8)
  ret void
}

; Function Attrs: inlinehint nounwind uwtable
define internal void @strbuf_addch(ptr noundef %0, i32 noundef %1) #4 {
  %3 = alloca ptr, align 8
  %4 = alloca i32, align 4
  store ptr %0, ptr %3, align 8, !tbaa !14
  store i32 %1, ptr %4, align 4, !tbaa !9
  %5 = load ptr, ptr %3, align 8, !tbaa !14
  %6 = call i64 @strbuf_avail(ptr noundef %5)
  %7 = icmp ne i64 %6, 0
  br i1 %7, label %10, label %8

8:                                                ; preds = %2
  %9 = load ptr, ptr %3, align 8, !tbaa !14
  call void @strbuf_grow(ptr noundef %9, i64 noundef 1)
  br label %10

10:                                               ; preds = %8, %2
  %11 = load i32, ptr %4, align 4, !tbaa !9
  %12 = trunc i32 %11 to i8
  %13 = load ptr, ptr %3, align 8, !tbaa !14
  %14 = getelementptr inbounds nuw %struct.strbuf, ptr %13, i32 0, i32 2
  %15 = load ptr, ptr %14, align 8, !tbaa !22
  %16 = load ptr, ptr %3, align 8, !tbaa !14
  %17 = getelementptr inbounds nuw %struct.strbuf, ptr %16, i32 0, i32 1
  %18 = load i64, ptr %17, align 8, !tbaa !33
  %19 = add i64 %18, 1
  store i64 %19, ptr %17, align 8, !tbaa !33
  %20 = getelementptr inbounds nuw i8, ptr %15, i64 %18
  store i8 %12, ptr %20, align 1, !tbaa !11
  %21 = load ptr, ptr %3, align 8, !tbaa !14
  %22 = getelementptr inbounds nuw %struct.strbuf, ptr %21, i32 0, i32 2
  %23 = load ptr, ptr %22, align 8, !tbaa !22
  %24 = load ptr, ptr %3, align 8, !tbaa !14
  %25 = getelementptr inbounds nuw %struct.strbuf, ptr %24, i32 0, i32 1
  %26 = load i64, ptr %25, align 8, !tbaa !33
  %27 = getelementptr inbounds nuw i8, ptr %23, i64 %26
  store i8 0, ptr %27, align 1, !tbaa !11
  ret void
}

; Function Attrs: nounwind uwtable
define internal void @append_quoted_string(ptr noundef %0, ptr noundef %1) #0 {
  %3 = alloca ptr, align 8
  %4 = alloca ptr, align 8
  %5 = alloca i8, align 1
  store ptr %0, ptr %3, align 8, !tbaa !14
  store ptr %1, ptr %4, align 8, !tbaa !12
  call void @llvm.lifetime.start.p0(i64 1, ptr %5) #7
  %6 = load ptr, ptr %3, align 8, !tbaa !14
  call void @strbuf_addch(ptr noundef %6, i32 noundef 34)
  br label %7

7:                                                ; preds = %74, %2
  %8 = load ptr, ptr %4, align 8, !tbaa !12
  %9 = getelementptr inbounds nuw i8, ptr %8, i32 1
  store ptr %9, ptr %4, align 8, !tbaa !12
  %10 = load i8, ptr %8, align 1, !tbaa !11
  store i8 %10, ptr %5, align 1, !tbaa !11
  %11 = zext i8 %10 to i32
  %12 = icmp ne i32 %11, 0
  br i1 %12, label %13, label %75

13:                                               ; preds = %7
  %14 = load i8, ptr %5, align 1, !tbaa !11
  %15 = zext i8 %14 to i32
  %16 = icmp eq i32 %15, 34
  br i1 %16, label %17, label %19

17:                                               ; preds = %13
  %18 = load ptr, ptr %3, align 8, !tbaa !14
  call void @strbuf_addstr(ptr noundef %18, ptr noundef @.str.8)
  br label %74

19:                                               ; preds = %13
  %20 = load i8, ptr %5, align 1, !tbaa !11
  %21 = zext i8 %20 to i32
  %22 = icmp eq i32 %21, 92
  br i1 %22, label %23, label %25

23:                                               ; preds = %19
  %24 = load ptr, ptr %3, align 8, !tbaa !14
  call void @strbuf_addstr(ptr noundef %24, ptr noundef @.str.9)
  br label %73

25:                                               ; preds = %19
  %26 = load i8, ptr %5, align 1, !tbaa !11
  %27 = zext i8 %26 to i32
  %28 = icmp eq i32 %27, 10
  br i1 %28, label %29, label %31

29:                                               ; preds = %25
  %30 = load ptr, ptr %3, align 8, !tbaa !14
  call void @strbuf_addstr(ptr noundef %30, ptr noundef @.str.10)
  br label %72

31:                                               ; preds = %25
  %32 = load i8, ptr %5, align 1, !tbaa !11
  %33 = zext i8 %32 to i32
  %34 = icmp eq i32 %33, 13
  br i1 %34, label %35, label %37

35:                                               ; preds = %31
  %36 = load ptr, ptr %3, align 8, !tbaa !14
  call void @strbuf_addstr(ptr noundef %36, ptr noundef @.str.11)
  br label %71

37:                                               ; preds = %31
  %38 = load i8, ptr %5, align 1, !tbaa !11
  %39 = zext i8 %38 to i32
  %40 = icmp eq i32 %39, 9
  br i1 %40, label %41, label %43

41:                                               ; preds = %37
  %42 = load ptr, ptr %3, align 8, !tbaa !14
  call void @strbuf_addstr(ptr noundef %42, ptr noundef @.str.12)
  br label %70

43:                                               ; preds = %37
  %44 = load i8, ptr %5, align 1, !tbaa !11
  %45 = zext i8 %44 to i32
  %46 = icmp eq i32 %45, 12
  br i1 %46, label %47, label %49

47:                                               ; preds = %43
  %48 = load ptr, ptr %3, align 8, !tbaa !14
  call void @strbuf_addstr(ptr noundef %48, ptr noundef @.str.13)
  br label %69

49:                                               ; preds = %43
  %50 = load i8, ptr %5, align 1, !tbaa !11
  %51 = zext i8 %50 to i32
  %52 = icmp eq i32 %51, 8
  br i1 %52, label %53, label %55

53:                                               ; preds = %49
  %54 = load ptr, ptr %3, align 8, !tbaa !14
  call void @strbuf_addstr(ptr noundef %54, ptr noundef @.str.14)
  br label %68

55:                                               ; preds = %49
  %56 = load i8, ptr %5, align 1, !tbaa !11
  %57 = zext i8 %56 to i32
  %58 = icmp slt i32 %57, 32
  br i1 %58, label %59, label %63

59:                                               ; preds = %55
  %60 = load ptr, ptr %3, align 8, !tbaa !14
  %61 = load i8, ptr %5, align 1, !tbaa !11
  %62 = zext i8 %61 to i32
  call void (ptr, ptr, ...) @strbuf_addf(ptr noundef %60, ptr noundef @.str.15, i32 noundef %62)
  br label %67

63:                                               ; preds = %55
  %64 = load ptr, ptr %3, align 8, !tbaa !14
  %65 = load i8, ptr %5, align 1, !tbaa !11
  %66 = zext i8 %65 to i32
  call void @strbuf_addch(ptr noundef %64, i32 noundef %66)
  br label %67

67:                                               ; preds = %63, %59
  br label %68

68:                                               ; preds = %67, %53
  br label %69

69:                                               ; preds = %68, %47
  br label %70

70:                                               ; preds = %69, %41
  br label %71

71:                                               ; preds = %70, %35
  br label %72

72:                                               ; preds = %71, %29
  br label %73

73:                                               ; preds = %72, %23
  br label %74

74:                                               ; preds = %73, %17
  br label %7, !llvm.loop !16

75:                                               ; preds = %7
  %76 = load ptr, ptr %3, align 8, !tbaa !14
  call void @strbuf_addch(ptr noundef %76, i32 noundef 34)
  call void @llvm.lifetime.end.p0(i64 1, ptr %5) #7
  ret void
}