; Function Attrs: nounwind uwtable
define internal fastcc void @append_quoted_string(ptr noundef %0, ptr noundef readonly captures(none) %1) unnamed_addr #3 {
  %3 = load i64, ptr %0, align 8, !tbaa !4
  %.not.i.i = icmp eq i64 %3, 0
  br i1 %.not.i.i, label %strbuf_avail.exit.thread.i, label %strbuf_avail.exit.i

strbuf_avail.exit.i:                              ; preds = %2
  %4 = getelementptr inbounds nuw i8, ptr %0, i64 8
  %5 = load i64, ptr %4, align 8, !tbaa !11
  %.neg.i = add i64 %5, 1
  %.not.i = icmp eq i64 %3, %.neg.i
  br i1 %.not.i, label %strbuf_avail.exit.thread.i, label %strbuf_addch.exit

strbuf_avail.exit.thread.i:                       ; preds = %strbuf_avail.exit.i, %2
  tail call void @strbuf_grow(ptr noundef nonnull %0, i64 noundef 1) #8
  %.phi.trans.insert.i = getelementptr inbounds nuw i8, ptr %0, i64 8
  %.pre.i = load i64, ptr %.phi.trans.insert.i, align 8, !tbaa !11
  %.pre7.i = add i64 %.pre.i, 1
  br label %strbuf_addch.exit

strbuf_addch.exit:                                ; preds = %strbuf_avail.exit.i, %strbuf_avail.exit.thread.i
  %.pre-phi.i = phi i64 [ %.pre7.i, %strbuf_avail.exit.thread.i ], [ %.neg.i, %strbuf_avail.exit.i ]
  %6 = phi i64 [ %.pre.i, %strbuf_avail.exit.thread.i ], [ %5, %strbuf_avail.exit.i ]
  %7 = getelementptr inbounds nuw i8, ptr %0, i64 16
  %8 = load ptr, ptr %7, align 8, !tbaa !12
  %9 = getelementptr inbounds nuw i8, ptr %0, i64 8
  store i64 %.pre-phi.i, ptr %9, align 8, !tbaa !11
  %10 = getelementptr inbounds nuw i8, ptr %8, i64 %6
  store i8 34, ptr %10, align 1, !tbaa !13
  %11 = load ptr, ptr %7, align 8, !tbaa !12
  %12 = load i64, ptr %9, align 8, !tbaa !11
  %13 = getelementptr inbounds nuw i8, ptr %11, i64 %12
  store i8 0, ptr %13, align 1, !tbaa !13
  br label %14

14:                                               ; preds = %.backedge, %strbuf_addch.exit
  %.0 = phi ptr [ %1, %strbuf_addch.exit ], [ %15, %.backedge ]
  %15 = getelementptr inbounds nuw i8, ptr %.0, i64 1
  %16 = load i8, ptr %.0, align 1, !tbaa !13
  %17 = zext i8 %16 to i32
  switch i8 %16, label %25 [
    i8 0, label %37
    i8 34, label %18
    i8 92, label %19
    i8 10, label %20
    i8 13, label %21
    i8 9, label %22
    i8 12, label %23
    i8 8, label %24
  ]

18:                                               ; preds = %14
  tail call void @strbuf_add(ptr noundef nonnull %0, ptr noundef nonnull @.str.8, i64 noundef 2) #8
  br label %.backedge

19:                                               ; preds = %14
  tail call void @strbuf_add(ptr noundef nonnull %0, ptr noundef nonnull @.str.9, i64 noundef 2) #8
  br label %.backedge

.backedge:                                        ; preds = %19, %21, %23, %27, %strbuf_addch.exit31, %24, %22, %20, %18
  br label %14, !llvm.loop !18

20:                                               ; preds = %14
  tail call void @strbuf_add(ptr noundef nonnull %0, ptr noundef nonnull @.str.10, i64 noundef 2) #8
  br label %.backedge

21:                                               ; preds = %14
  tail call void @strbuf_add(ptr noundef nonnull %0, ptr noundef nonnull @.str.11, i64 noundef 2) #8
  br label %.backedge

22:                                               ; preds = %14
  tail call void @strbuf_add(ptr noundef nonnull %0, ptr noundef nonnull @.str.12, i64 noundef 2) #8
  br label %.backedge

23:                                               ; preds = %14
  tail call void @strbuf_add(ptr noundef nonnull %0, ptr noundef nonnull @.str.13, i64 noundef 2) #8
  br label %.backedge

24:                                               ; preds = %14
  tail call void @strbuf_add(ptr noundef nonnull %0, ptr noundef nonnull @.str.14, i64 noundef 2) #8
  br label %.backedge

25:                                               ; preds = %14
  %26 = icmp ult i8 %16, 32
  br i1 %26, label %27, label %28

27:                                               ; preds = %25
  tail call void (ptr, ptr, ...) @strbuf_addf(ptr noundef nonnull %0, ptr noundef nonnull @.str.15, i32 noundef %17) #8
  br label %.backedge

28:                                               ; preds = %25
  %29 = load i64, ptr %0, align 8, !tbaa !4
  %.not.i.i22 = icmp eq i64 %29, 0
  br i1 %.not.i.i22, label %strbuf_avail.exit.thread.i27, label %strbuf_avail.exit.i23

strbuf_avail.exit.i23:                            ; preds = %28
  %30 = load i64, ptr %9, align 8, !tbaa !11
  %.neg.i24 = add i64 %30, 1
  %.not.i25 = icmp eq i64 %29, %.neg.i24
  br i1 %.not.i25, label %strbuf_avail.exit.thread.i27, label %strbuf_addch.exit31

strbuf_avail.exit.thread.i27:                     ; preds = %strbuf_avail.exit.i23, %28
  tail call void @strbuf_grow(ptr noundef nonnull %0, i64 noundef 1) #8
  %.pre.i29 = load i64, ptr %9, align 8, !tbaa !11
  %.pre7.i30 = add i64 %.pre.i29, 1
  br label %strbuf_addch.exit31

strbuf_addch.exit31:                              ; preds = %strbuf_avail.exit.i23, %strbuf_avail.exit.thread.i27
  %.pre-phi.i26 = phi i64 [ %.pre7.i30, %strbuf_avail.exit.thread.i27 ], [ %.neg.i24, %strbuf_avail.exit.i23 ]
  %31 = phi i64 [ %.pre.i29, %strbuf_avail.exit.thread.i27 ], [ %30, %strbuf_avail.exit.i23 ]
  %32 = load ptr, ptr %7, align 8, !tbaa !12
  store i64 %.pre-phi.i26, ptr %9, align 8, !tbaa !11
  %33 = getelementptr inbounds nuw i8, ptr %32, i64 %31
  store i8 %16, ptr %33, align 1, !tbaa !13
  %34 = load ptr, ptr %7, align 8, !tbaa !12
  %35 = load i64, ptr %9, align 8, !tbaa !11
  %36 = getelementptr inbounds nuw i8, ptr %34, i64 %35
  store i8 0, ptr %36, align 1, !tbaa !13
  br label %.backedge

37:                                               ; preds = %14
  %38 = load i64, ptr %0, align 8, !tbaa !4
  %.not.i.i32 = icmp eq i64 %38, 0
  br i1 %.not.i.i32, label %strbuf_avail.exit.thread.i37, label %strbuf_avail.exit.i33

strbuf_avail.exit.i33:                            ; preds = %37
  %39 = load i64, ptr %9, align 8, !tbaa !11
  %.neg.i34 = add i64 %39, 1
  %.not.i35 = icmp eq i64 %38, %.neg.i34
  br i1 %.not.i35, label %strbuf_avail.exit.thread.i37, label %strbuf_addch.exit41

strbuf_avail.exit.thread.i37:                     ; preds = %strbuf_avail.exit.i33, %37
  tail call void @strbuf_grow(ptr noundef nonnull %0, i64 noundef 1) #8
  %.pre.i39 = load i64, ptr %9, align 8, !tbaa !11
  %.pre7.i40 = add i64 %.pre.i39, 1
  br label %strbuf_addch.exit41

strbuf_addch.exit41:                              ; preds = %strbuf_avail.exit.i33, %strbuf_avail.exit.thread.i37
  %.pre-phi.i36 = phi i64 [ %.pre7.i40, %strbuf_avail.exit.thread.i37 ], [ %.neg.i34, %strbuf_avail.exit.i33 ]
  %40 = phi i64 [ %.pre.i39, %strbuf_avail.exit.thread.i37 ], [ %39, %strbuf_avail.exit.i33 ]
  %41 = load ptr, ptr %7, align 8, !tbaa !12
  store i64 %.pre-phi.i36, ptr %9, align 8, !tbaa !11
  %42 = getelementptr inbounds nuw i8, ptr %41, i64 %40
  store i8 34, ptr %42, align 1, !tbaa !13
  %43 = load ptr, ptr %7, align 8, !tbaa !12
  %44 = load i64, ptr %9, align 8, !tbaa !11
  %45 = getelementptr inbounds nuw i8, ptr %43, i64 %44
  store i8 0, ptr %45, align 1, !tbaa !13
  ret void
}